; Function Attrs: nounwind uwtable
define range(i32 0, 2) i32 @Abc_ObjExpandCubes(ptr noundef %0, ptr noundef %1, i32 noundef %2) local_unnamed_addr #0 {
  %4 = alloca i32, align 4
  %5 = tail call noalias dereferenceable_or_null(16) ptr @malloc(i64 noundef 16) #7
  %6 = add i32 %2, -1
  %or.cond.i = icmp ult i32 %6, 15
  %spec.store.select.i = select i1 %or.cond.i, i32 16, i32 %2
  %7 = getelementptr inbounds nuw i8, ptr %5, i64 4
  store i32 0, ptr %7, align 4
  store i32 %spec.store.select.i, ptr %5, align 8
  %.not.i = icmp eq i32 %spec.store.select.i, 0
  br i1 %.not.i, label %Vec_IntAlloc.exit, label %8

8:                                                ; preds = %3
  %9 = sext i32 %spec.store.select.i to i64
  %10 = shl nsw i64 %9, 2
  %11 = tail call noalias ptr @malloc(i64 noundef %10) #7
  br label %Vec_IntAlloc.exit

Vec_IntAlloc.exit:                                ; preds = %3, %8
  %12 = phi ptr [ %11, %8 ], [ null, %3 ]
  %13 = getelementptr inbounds nuw i8, ptr %5, i64 8
  store ptr %12, ptr %13, align 8
  %14 = tail call ptr @Mf_ManGenerateCnf(ptr noundef %1, i32 noundef 8, i32 noundef 0, i32 noundef 0, i32 noundef 0, i32 noundef 0) #6
  %15 = tail call ptr @Cnf_DataWriteIntoSolver(ptr noundef %14, i32 noundef 1, i32 noundef 0) #6
  %16 = tail call i32 @sat_solver_nvars(ptr noundef %15) #6
  %17 = sub i32 %16, %2
  %18 = getelementptr inbounds nuw i8, ptr %4, i64 4
  br label %19

19:                                               ; preds = %Vec_IntAlloc.exit, %55
  %20 = phi i1 [ true, %Vec_IntAlloc.exit ], [ false, %55 ]
  %.04149 = phi i32 [ 2, %Vec_IntAlloc.exit ], [ 3, %55 ]
  store i32 %.04149, ptr %4, align 4
  %21 = call i32 @sat_solver_solve(ptr noundef %15, ptr noundef nonnull %4, ptr noundef nonnull %18, i64 noundef 0, i64 noundef 0, i64 noundef 0, i64 noundef 0) #6
  %22 = icmp eq i32 %21, -1
  br i1 %22, label %23, label %55

23:                                               ; preds = %19
  %24 = getelementptr inbounds nuw i8, ptr %0, i64 4
  store i32 0, ptr %24, align 4
  %25 = select i1 %20, ptr @.str.1, ptr @.str
  call fastcc void @Vec_StrPrintStr(ptr noundef %0, ptr noundef nonnull %25)
  %26 = load i32, ptr %24, align 4
  %27 = load i32, ptr %0, align 8
  %28 = icmp eq i32 %26, %27
  br i1 %28, label %29, label %.Vec_StrGrow.exit10_crit_edge.i

.Vec_StrGrow.exit10_crit_edge.i:                  ; preds = %23
  %.phi.trans.insert.i = getelementptr inbounds nuw i8, ptr %0, i64 8
  %.pre.i = load ptr, ptr %.phi.trans.insert.i, align 8
  br label %Vec_StrPush.exit

29:                                               ; preds = %23
  %30 = icmp slt i32 %26, 16
  br i1 %30, label %31, label %39

31:                                               ; preds = %29
  %32 = getelementptr inbounds nuw i8, ptr %0, i64 8
  %33 = load ptr, ptr %32, align 8
  %.not9.i.i = icmp eq ptr %33, null
  br i1 %.not9.i.i, label %36, label %34

34:                                               ; preds = %31
  %35 = call dereferenceable_or_null(16) ptr @realloc(ptr noundef nonnull %33, i64 noundef 16) #8
  br label %Vec_StrGrow.exit.i

36:                                               ; preds = %31
  %37 = call noalias dereferenceable_or_null(16) ptr @malloc(i64 noundef 16) #7
  br label %Vec_StrGrow.exit.i

Vec_StrGrow.exit.i:                               ; preds = %36, %34
  %38 = phi ptr [ %35, %34 ], [ %37, %36 ]
  store ptr %38, ptr %32, align 8
  store i32 16, ptr %0, align 8
  br label %Vec_StrPush.exit

39:                                               ; preds = %29
  %40 = shl nuw nsw i32 %26, 1
  %41 = getelementptr inbounds nuw i8, ptr %0, i64 8
  %42 = load ptr, ptr %41, align 8
  %.not9.i9.i = icmp eq ptr %42, null
  %43 = zext nneg i32 %40 to i64
  br i1 %.not9.i9.i, label %46, label %44

44:                                               ; preds = %39
  %45 = call ptr @realloc(ptr noundef nonnull %42, i64 noundef %43) #8
  br label %48

46:                                               ; preds = %39
  %47 = call noalias ptr @malloc(i64 noundef %43) #7
  br label %48

48:                                               ; preds = %46, %44
  %49 = phi ptr [ %45, %44 ], [ %47, %46 ]
  store ptr %49, ptr %41, align 8
  store i32 %40, ptr %0, align 8
  br label %Vec_StrPush.exit

Vec_StrPush.exit:                                 ; preds = %.Vec_StrGrow.exit10_crit_edge.i, %Vec_StrGrow.exit.i, %48
  %50 = phi ptr [ %.pre.i, %.Vec_StrGrow.exit10_crit_edge.i ], [ %49, %48 ], [ %38, %Vec_StrGrow.exit.i ]
  %51 = load i32, ptr %24, align 4
  %52 = add nsw i32 %51, 1
  store i32 %52, ptr %24, align 4
  %53 = sext i32 %51 to i64
  %54 = getelementptr inbounds i8, ptr %50, i64 %53
  store i8 0, ptr %54, align 1
  br label %94

55:                                               ; preds = %19
  br i1 %20, label %19, label %56, !llvm.loop !9

56:                                               ; preds = %55
  store i32 3, ptr %4, align 4
  %57 = call i32 @sat_solver_addclause(ptr noundef %15, ptr noundef nonnull %4, ptr noundef nonnull %18) #6
  %58 = icmp sgt i32 %2, 0
  br i1 %58, label %.lr.ph, label %._crit_edge

.lr.ph:                                           ; preds = %56, %Vec_IntPush.exit
  %.150 = phi i32 [ %87, %Vec_IntPush.exit ], [ 0, %56 ]
  %59 = add nsw i32 %17, %.150
  %60 = load i32, ptr %7, align 4
  %61 = load i32, ptr %5, align 8
  %62 = icmp eq i32 %60, %61
  br i1 %62, label %63, label %.Vec_IntGrow.exit10_crit_edge.i

.Vec_IntGrow.exit10_crit_edge.i:                  ; preds = %.lr.ph
  %.pre.i44 = load ptr, ptr %13, align 8
  br label %Vec_IntPush.exit

63:                                               ; preds = %.lr.ph
  %64 = icmp slt i32 %60, 16
  br i1 %64, label %65, label %72

65:                                               ; preds = %63
  %66 = load ptr, ptr %13, align 8
  %.not9.i.i46 = icmp eq ptr %66, null
  br i1 %.not9.i.i46, label %69, label %67

67:                                               ; preds = %65
  %68 = call dereferenceable_or_null(64) ptr @realloc(ptr noundef nonnull %66, i64 noundef 64) #8
  br label %Vec_IntGrow.exit.i

69:                                               ; preds = %65
  %70 = call noalias dereferenceable_or_null(64) ptr @malloc(i64 noundef 64) #7
  br label %Vec_IntGrow.exit.i

Vec_IntGrow.exit.i:                               ; preds = %69, %67
  %71 = phi ptr [ %68, %67 ], [ %70, %69 ]
  store ptr %71, ptr %13, align 8
  store i32 16, ptr %5, align 8
  br label %Vec_IntPush.exit

72:                                               ; preds = %63
  %73 = shl nuw nsw i32 %60, 1
  %74 = load ptr, ptr %13, align 8
  %.not9.i9.i45 = icmp eq ptr %74, null
  %75 = zext nneg i32 %73 to i64
  %76 = shl nuw nsw i64 %75, 2
  br i1 %.not9.i9.i45, label %79, label %77

77:                                               ; preds = %72
  %78 = call ptr @realloc(ptr noundef nonnull %74, i64 noundef %76) #8
  br label %81

79:                                               ; preds = %72
  %80 = call noalias ptr @malloc(i64 noundef %76) #7
  br label %81

81:                                               ; preds = %79, %77
  %82 = phi ptr [ %78, %77 ], [ %80, %79 ]
  store ptr %82, ptr %13, align 8
  store i32 %73, ptr %5, align 8
  br label %Vec_IntPush.exit

Vec_IntPush.exit:                                 ; preds = %.Vec_IntGrow.exit10_crit_edge.i, %Vec_IntGrow.exit.i, %81
  %83 = phi ptr [ %.pre.i44, %.Vec_IntGrow.exit10_crit_edge.i ], [ %82, %81 ], [ %71, %Vec_IntGrow.exit.i ]
  %84 = add nsw i32 %60, 1
  store i32 %84, ptr %7, align 4
  %85 = sext i32 %60 to i64
  %86 = getelementptr inbounds i32, ptr %83, i64 %85
  store i32 %59, ptr %86, align 4
  %87 = add nuw nsw i32 %.150, 1
  %exitcond.not = icmp eq i32 %87, %2
  br i1 %exitcond.not, label %._crit_edge, label %.lr.ph, !llvm.loop !10

._crit_edge:                                      ; preds = %Vec_IntPush.exit, %56
  %88 = call i32 @Abc_ObjExpandCubesTry(ptr noundef %0, ptr noundef %15, ptr noundef nonnull %5)
  call void @sat_solver_delete(ptr noundef %15) #6
  call void @Cnf_DataFree(ptr noundef %14) #6
  %89 = load ptr, ptr %13, align 8
  %.not.i47 = icmp eq ptr %89, null
  br i1 %.not.i47, label %Vec_IntFree.exit, label %90

90:                                               ; preds = %._crit_edge
  call void @free(ptr noundef nonnull %89) #6
  br label %Vec_IntFree.exit

Vec_IntFree.exit:                                 ; preds = %._crit_edge, %90
  call void @free(ptr noundef nonnull %5) #6
  %91 = icmp sgt i32 %88, 1
  br i1 %91, label %92, label %94

92:                                               ; preds = %Vec_IntFree.exit
  %93 = call i32 @Bmc_CollapseIrredundantFull(ptr noundef %0, i32 noundef %88, i32 noundef %2) #6
  br label %94

94:                                               ; preds = %Vec_IntFree.exit, %92, %Vec_StrPush.exit
  %.0 = phi i32 [ 1, %Vec_StrPush.exit ], [ 0, %92 ], [ 0, %Vec_IntFree.exit ]
  ret i32 %.0
}